target datalayout = "e-m:e-p270:32:32-p271:32:32-p272:64:64-i64:64-i128:128-f80:128-n8:16:32:64-S128"
target triple = "x86_64-pc-linux-gnu"

%class.MLRenderingToolbar = type { %class.QToolBar, %class.QList, i32, ptr, %class.QMap, %class.QMap.1, ptr }
%class.QToolBar = type { %class.QWidget }
%class.QWidget = type { %class.QObject, %class.QPaintDevice, ptr }
%class.QObject = type { ptr, %class.QScopedPointer }
%class.QScopedPointer = type { ptr }
%class.QPaintDevice = type { ptr, i16, ptr }
%class.QList = type { %union.anon }
%union.anon = type { %struct.QListData }
%struct.QListData = type { ptr }
%class.QMap = type { ptr }
%class.QMap.1 = type { ptr }
%class.QFrame = type { %class.QWidget }
%class.MLRenderingParametersFrame.base = type <{ %class.QFrame, i32 }>
%class.MLRenderingOnOffToolbar = type { %class.QToolBar, i32, ptr, ptr, ptr }
%class.MLRenderingWireParametersFrame = type { %class.MLRenderingParametersFrame.base, ptr, ptr, ptr, ptr, ptr, ptr, ptr }
%class.MLRenderingFloatSlider = type <{ %class.MLFloatSlider, ptr, i32, [4 x i8] }>
%class.MLFloatSlider = type { %class.QSlider }
%class.QSlider = type { %class.QAbstractSlider }
%class.QAbstractSlider = type { %class.QWidget }

; Function Attrs: mustprogress nounwind uwtable
define noundef ptr @_ZN22MLRenderingFloatSlider18getRenderingActionEv(ptr noundef nonnull align 8 dereferenceable(60) %0) #4 align 2 {
  %2 = alloca ptr, align 8
  store ptr %0, ptr %2, align 8
  %3 = load ptr, ptr %2, align 8
  %4 = getelementptr inbounds %class.MLRenderingFloatSlider, ptr %3, i32 0, i32 1
  %5 = load ptr, ptr %4, align 8
  ret ptr %5
}

; Function Attrs: mustprogress nounwind uwtable
define noundef ptr @_ZN23MLRenderingOnOffToolbar18getRenderingActionEv(ptr noundef nonnull align 8 dereferenceable(80) %0) #4 align 2 {
  %2 = alloca ptr, align 8
  store ptr %0, ptr %2, align 8
  %3 = load ptr, ptr %2, align 8
  %4 = getelementptr inbounds %class.MLRenderingOnOffToolbar, ptr %3, i32 0, i32 2
  %5 = load ptr, ptr %4, align 8
  ret ptr %5
}

; Function Attrs: mustprogress uwtable
define linkonce_odr void @_ZN5QListIP17MLRenderingActionE6appendERKS2_(ptr noundef nonnull align 8 dereferenceable(8) %0, ptr noundef nonnull align 8 dereferenceable(8) %1) #5 comdat align 2 {
  %3 = alloca ptr, align 8
  %4 = alloca ptr, align 8
  store ptr %0, ptr %3, align 8
  store ptr %1, ptr %4, align 8
  %5 = load ptr, ptr %3, align 8
  %6 = load ptr, ptr %4, align 8
  %7 = call noundef nonnull align 8 dereferenceable(8) ptr @_ZN5QListIP17MLRenderingActionEpLERKS2_(ptr noundef nonnull align 8 dereferenceable(8) %5, ptr noundef nonnull align 8 dereferenceable(8) %6)
  ret void
}

; Function Attrs: mustprogress nounwind uwtable
define noundef nonnull align 8 dereferenceable(8) ptr @_ZN18MLRenderingToolbar19getRenderingActionsEv(ptr noundef nonnull align 8 dereferenceable(96) %0) #4 align 2 {
  %2 = alloca ptr, align 8
  store ptr %0, ptr %2, align 8
  %3 = load ptr, ptr %2, align 8
  %4 = getelementptr inbounds %class.MLRenderingToolbar, ptr %3, i32 0, i32 1
  ret ptr %4
}

; Function Attrs: mustprogress uwtable
define void @_ZN30MLRenderingWireParametersFrame11actionsListER5QListIP17MLRenderingActionE(ptr noundef nonnull align 8 dereferenceable(112) %0, ptr noundef nonnull align 8 dereferenceable(8) %1) unnamed_addr #5 align 2 {
  %3 = alloca ptr, align 8
  %4 = alloca ptr, align 8
  %5 = alloca ptr, align 8
  %6 = alloca ptr, align 8
  store ptr %0, ptr %3, align 8
  store ptr %1, ptr %4, align 8
  %7 = load ptr, ptr %3, align 8
  %8 = load ptr, ptr %4, align 8
  %9 = getelementptr inbounds %class.MLRenderingWireParametersFrame, ptr %7, i32 0, i32 2
  %10 = load ptr, ptr %9, align 8
  %11 = call noundef nonnull align 8 dereferenceable(8) ptr @_ZN18MLRenderingToolbar19getRenderingActionsEv(ptr noundef nonnull align 8 dereferenceable(96) %10)
  call void @_ZN5QListIP17MLRenderingActionE6appendERKS2_(ptr noundef nonnull align 8 dereferenceable(8) %8, ptr noundef nonnull align 8 dereferenceable(8) %11)
  %12 = load ptr, ptr %4, align 8
  %13 = getelementptr inbounds %class.MLRenderingWireParametersFrame, ptr %7, i32 0, i32 4
  %14 = load ptr, ptr %13, align 8
  %15 = call noundef nonnull align 8 dereferenceable(8) ptr @_ZN18MLRenderingToolbar19getRenderingActionsEv(ptr noundef nonnull align 8 dereferenceable(96) %14)
  call void @_ZN5QListIP17MLRenderingActionE6appendERKS2_(ptr noundef nonnull align 8 dereferenceable(8) %12, ptr noundef nonnull align 8 dereferenceable(8) %15)
  %16 = load ptr, ptr %4, align 8
  %17 = getelementptr inbounds %class.MLRenderingWireParametersFrame, ptr %7, i32 0, i32 6
  %18 = load ptr, ptr %17, align 8
  %19 = call noundef ptr @_ZN23MLRenderingOnOffToolbar18getRenderingActionEv(ptr noundef nonnull align 8 dereferenceable(80) %18)
  store ptr %19, ptr %5, align 8
  call void @_ZN5QListIP17MLRenderingActionE6appendERKS1_(ptr noundef nonnull align 8 dereferenceable(8) %16, ptr noundef nonnull align 8 dereferenceable(8) %5)
  %20 = load ptr, ptr %4, align 8
  %21 = getelementptr inbounds %class.MLRenderingWireParametersFrame, ptr %7, i32 0, i32 7
  %22 = load ptr, ptr %21, align 8
  %23 = call noundef ptr @_ZN22MLRenderingFloatSlider18getRenderingActionEv(ptr noundef nonnull align 8 dereferenceable(60) %22)
  store ptr %23, ptr %6, align 8
  call void @_ZN5QListIP17MLRenderingActionE6appendERKS1_(ptr noundef nonnull align 8 dereferenceable(8) %20, ptr noundef nonnull align 8 dereferenceable(8) %6)
  ret void
}