; Function Attrs: mustprogress uwtable
define void @_ZN30MLRenderingWireParametersFrame11actionsListER5QListIP17MLRenderingActionE(ptr nocapture noundef nonnull readonly align 8 dereferenceable(112) %0, ptr noundef nonnull align 8 dereferenceable(8) %1) unnamed_addr #3 align 2 {
  %3 = alloca ptr, align 8
  %4 = alloca ptr, align 8
  %5 = getelementptr inbounds i8, ptr %0, i64 64
  %6 = load ptr, ptr %5, align 8
  %7 = getelementptr inbounds i8, ptr %6, i64 48
  %8 = tail call noundef nonnull align 8 dereferenceable(8) ptr @_ZN5QListIP17MLRenderingActionEpLERKS2_(ptr noundef nonnull align 8 dereferenceable(8) %1, ptr noundef nonnull align 8 dereferenceable(8) %7)
  %9 = getelementptr inbounds i8, ptr %0, i64 80
  %10 = load ptr, ptr %9, align 8
  %11 = getelementptr inbounds i8, ptr %10, i64 48
  %12 = tail call noundef nonnull align 8 dereferenceable(8) ptr @_ZN5QListIP17MLRenderingActionEpLERKS2_(ptr noundef nonnull align 8 dereferenceable(8) %1, ptr noundef nonnull align 8 dereferenceable(8) %11)
  %13 = getelementptr inbounds i8, ptr %0, i64 96
  %14 = load ptr, ptr %13, align 8
  %15 = getelementptr inbounds i8, ptr %14, i64 56
  %16 = load ptr, ptr %15, align 8
  store ptr %16, ptr %3, align 8
  call void @_ZN5QListIP17MLRenderingActionE6appendERKS1_(ptr noundef nonnull align 8 dereferenceable(8) %1, ptr noundef nonnull align 8 dereferenceable(8) %3)
  %17 = getelementptr inbounds i8, ptr %0, i64 104
  %18 = load ptr, ptr %17, align 8
  %19 = getelementptr inbounds i8, ptr %18, i64 48
  %20 = load ptr, ptr %19, align 8
  store ptr %20, ptr %4, align 8
  call void @_ZN5QListIP17MLRenderingActionE6appendERKS1_(ptr noundef nonnull align 8 dereferenceable(8) %1, ptr noundef nonnull align 8 dereferenceable(8) %4)
  ret void
}